target datalayout = "e-m:e-p270:32:32-p271:32:32-p272:64:64-i64:64-i128:128-f80:128-n8:16:32:64-S128"
target triple = "x86_64-pc-linux-gnu"

%struct.ossl_core_bio_st = type { %struct.CRYPTO_REF_COUNT, ptr }
%struct.CRYPTO_REF_COUNT = type { i32 }

@.str = private unnamed_addr constant [38 x i8] c"../openssl/crypto/bio/ossl_core_bio.c\00", align 1

; Function Attrs: nounwind uwtable
define i32 @ossl_core_bio_up_ref(ptr noundef %0) #0 {
  %2 = alloca ptr, align 8
  %3 = alloca i32, align 4
  store ptr %0, ptr %2, align 8, !tbaa !3
  call void @llvm.lifetime.start.p0(i64 4, ptr %3) #4
  store i32 0, ptr %3, align 4, !tbaa !8
  %4 = load ptr, ptr %2, align 8, !tbaa !3
  %5 = getelementptr inbounds nuw %struct.ossl_core_bio_st, ptr %4, i32 0, i32 0
  %6 = call i32 @CRYPTO_UP_REF(ptr noundef %5, ptr noundef %3)
  call void @llvm.lifetime.end.p0(i64 4, ptr %3) #4
  ret i32 %6
}

; Function Attrs: nocallback nofree nosync nounwind willreturn memory(argmem: readwrite)
declare void @llvm.lifetime.start.p0(i64 immarg, ptr captures(none)) #1

; Function Attrs: inlinehint nounwind uwtable
define internal i32 @CRYPTO_UP_REF(ptr noundef %0, ptr noundef %1) #2 {
  %3 = alloca ptr, align 8
  %4 = alloca ptr, align 8
  %5 = alloca i32, align 4
  %6 = alloca i32, align 4
  store ptr %0, ptr %3, align 8, !tbaa !10
  store ptr %1, ptr %4, align 8, !tbaa !11
  %7 = load ptr, ptr %3, align 8, !tbaa !10
  %8 = getelementptr inbounds nuw %struct.CRYPTO_REF_COUNT, ptr %7, i32 0, i32 0
  store i32 1, ptr %5, align 4, !tbaa !8
  %9 = load i32, ptr %5, align 4
  %10 = atomicrmw add ptr %8, i32 %9 monotonic, align 4
  store i32 %10, ptr %6, align 4
  %11 = load i32, ptr %6, align 4, !tbaa !8
  %12 = add nsw i32 %11, 1
  %13 = load ptr, ptr %4, align 8, !tbaa !11
  store i32 %12, ptr %13, align 4, !tbaa !8
  ret i32 1
}

; Function Attrs: nocallback nofree nosync nounwind willreturn memory(argmem: readwrite)
declare void @llvm.lifetime.end.p0(i64 immarg, ptr captures(none)) #1

; Function Attrs: nounwind uwtable
define i32 @ossl_core_bio_free(ptr noundef %0) #0 {
  %2 = alloca ptr, align 8
  %3 = alloca i32, align 4
  %4 = alloca i32, align 4
  store ptr %0, ptr %2, align 8, !tbaa !3
  call void @llvm.lifetime.start.p0(i64 4, ptr %3) #4
  store i32 0, ptr %3, align 4, !tbaa !8
  call void @llvm.lifetime.start.p0(i64 4, ptr %4) #4
  store i32 1, ptr %4, align 4, !tbaa !8
  %5 = load ptr, ptr %2, align 8, !tbaa !3
  %6 = icmp ne ptr %5, null
  br i1 %6, label %7, label %22

7:                                                ; preds = %1
  %8 = load ptr, ptr %2, align 8, !tbaa !3
  %9 = getelementptr inbounds nuw %struct.ossl_core_bio_st, ptr %8, i32 0, i32 0
  %10 = call i32 @CRYPTO_DOWN_REF(ptr noundef %9, ptr noundef %3)
  %11 = load i32, ptr %3, align 4, !tbaa !8
  %12 = icmp sle i32 %11, 0
  br i1 %12, label %13, label %21

13:                                               ; preds = %7
  %14 = load ptr, ptr %2, align 8, !tbaa !3
  %15 = getelementptr inbounds nuw %struct.ossl_core_bio_st, ptr %14, i32 0, i32 1
  %16 = load ptr, ptr %15, align 8, !tbaa !13
  %17 = call i32 @BIO_free(ptr noundef %16)
  store i32 %17, ptr %4, align 4, !tbaa !8
  %18 = load ptr, ptr %2, align 8, !tbaa !3
  %19 = getelementptr inbounds nuw %struct.ossl_core_bio_st, ptr %18, i32 0, i32 0
  call void @CRYPTO_FREE_REF(ptr noundef %19)
  %20 = load ptr, ptr %2, align 8, !tbaa !3
  call void @CRYPTO_free(ptr noundef %20, ptr noundef @.str, i32 noundef 50)
  br label %21

21:                                               ; preds = %13, %7
  br label %22

22:                                               ; preds = %21, %1
  %23 = load i32, ptr %4, align 4, !tbaa !8
  call void @llvm.lifetime.end.p0(i64 4, ptr %4) #4
  call void @llvm.lifetime.end.p0(i64 4, ptr %3) #4
  ret i32 %23
}

; Function Attrs: inlinehint nounwind uwtable
define internal i32 @CRYPTO_DOWN_REF(ptr noundef %0, ptr noundef %1) #2 {
  %3 = alloca ptr, align 8
  %4 = alloca ptr, align 8
  %5 = alloca i32, align 4
  %6 = alloca i32, align 4
  store ptr %0, ptr %3, align 8, !tbaa !10
  store ptr %1, ptr %4, align 8, !tbaa !11
  %7 = load ptr, ptr %3, align 8, !tbaa !10
  %8 = getelementptr inbounds nuw %struct.CRYPTO_REF_COUNT, ptr %7, i32 0, i32 0
  store i32 1, ptr %5, align 4, !tbaa !8
  %9 = load i32, ptr %5, align 4
  %10 = atomicrmw sub ptr %8, i32 %9 release, align 4
  store i32 %10, ptr %6, align 4
  %11 = load i32, ptr %6, align 4, !tbaa !8
  %12 = sub nsw i32 %11, 1
  %13 = load ptr, ptr %4, align 8, !tbaa !11
  store i32 %12, ptr %13, align 4, !tbaa !8
  %14 = load ptr, ptr %4, align 8, !tbaa !11
  %15 = load i32, ptr %14, align 4, !tbaa !8
  %16 = icmp eq i32 %15, 0
  br i1 %16, label %17, label %18

17:                                               ; preds = %2
  fence acquire
  br label %18

18:                                               ; preds = %17, %2
  ret i32 1
}

declare i32 @BIO_free(ptr noundef) #3

; Function Attrs: inlinehint nounwind uwtable
define internal void @CRYPTO_FREE_REF(ptr noundef %0) #2 {
  %2 = alloca ptr, align 8
  store ptr %0, ptr %2, align 8, !tbaa !10
  ret void
}

declare void @CRYPTO_free(ptr noundef, ptr noundef, i32 noundef) #3

; Function Attrs: nounwind uwtable
define ptr @ossl_core_bio_new_from_bio(ptr noundef %0) #0 {
  %2 = alloca ptr, align 8
  %3 = alloca ptr, align 8
  %4 = alloca ptr, align 8
  %5 = alloca i32, align 4
  store ptr %0, ptr %3, align 8, !tbaa !17
  call void @llvm.lifetime.start.p0(i64 8, ptr %4) #4
  %6 = call ptr @core_bio_new()
  store ptr %6, ptr %4, align 8, !tbaa !3
  %7 = load ptr, ptr %4, align 8, !tbaa !3
  %8 = icmp eq ptr %7, null
  br i1 %8, label %13, label %9

9:                                                ; preds = %1
  %10 = load ptr, ptr %3, align 8, !tbaa !17
  %11 = call i32 @BIO_up_ref(ptr noundef %10)
  %12 = icmp ne i32 %11, 0
  br i1 %12, label %16, label %13

13:                                               ; preds = %9, %1
  %14 = load ptr, ptr %4, align 8, !tbaa !3
  %15 = call i32 @ossl_core_bio_free(ptr noundef %14)
  store ptr null, ptr %2, align 8
  store i32 1, ptr %5, align 4
  br label %21

16:                                               ; preds = %9
  %17 = load ptr, ptr %3, align 8, !tbaa !17
  %18 = load ptr, ptr %4, align 8, !tbaa !3
  %19 = getelementptr inbounds nuw %struct.ossl_core_bio_st, ptr %18, i32 0, i32 1
  store ptr %17, ptr %19, align 8, !tbaa !13
  %20 = load ptr, ptr %4, align 8, !tbaa !3
  store ptr %20, ptr %2, align 8
  store i32 1, ptr %5, align 4
  br label %21

21:                                               ; preds = %16, %13
  call void @llvm.lifetime.end.p0(i64 8, ptr %4) #4
  %22 = load ptr, ptr %2, align 8
  ret ptr %22
}

; Function Attrs: nounwind uwtable
define internal ptr @core_bio_new() #0 {
  %1 = alloca ptr, align 8
  %2 = alloca ptr, align 8
  %3 = alloca i32, align 4
  call void @llvm.lifetime.start.p0(i64 8, ptr %2) #4
  %4 = call noalias ptr @CRYPTO_malloc(i64 noundef 16, ptr noundef @.str, i32 noundef 25)
  store ptr %4, ptr %2, align 8, !tbaa !3
  %5 = load ptr, ptr %2, align 8, !tbaa !3
  %6 = icmp eq ptr %5, null
  br i1 %6, label %12, label %7

7:                                                ; preds = %0
  %8 = load ptr, ptr %2, align 8, !tbaa !3
  %9 = getelementptr inbounds nuw %struct.ossl_core_bio_st, ptr %8, i32 0, i32 0
  %10 = call i32 @CRYPTO_NEW_REF(ptr noundef %9, i32 noundef 1)
  %11 = icmp ne i32 %10, 0
  br i1 %11, label %14, label %12

12:                                               ; preds = %7, %0
  %13 = load ptr, ptr %2, align 8, !tbaa !3
  call void @CRYPTO_free(ptr noundef %13, ptr noundef @.str, i32 noundef 28)
  store ptr null, ptr %1, align 8
  store i32 1, ptr %3, align 4
  br label %16

14:                                               ; preds = %7
  %15 = load ptr, ptr %2, align 8, !tbaa !3
  store ptr %15, ptr %1, align 8
  store i32 1, ptr %3, align 4
  br label %16

16:                                               ; preds = %14, %12
  call void @llvm.lifetime.end.p0(i64 8, ptr %2) #4
  %17 = load ptr, ptr %1, align 8
  ret ptr %17
}

declare i32 @BIO_up_ref(ptr noundef) #3

; Function Attrs: nounwind uwtable
define ptr @ossl_core_bio_new_file(ptr noundef %0, ptr noundef %1) #0 {
  %3 = alloca ptr, align 8
  %4 = alloca ptr, align 8
  store ptr %0, ptr %3, align 8, !tbaa !18
  store ptr %1, ptr %4, align 8, !tbaa !18
  %5 = load ptr, ptr %3, align 8, !tbaa !18
  %6 = load ptr, ptr %4, align 8, !tbaa !18
  %7 = call ptr @BIO_new_file(ptr noundef %5, ptr noundef %6)
  %8 = call ptr @core_bio_new_from_new_bio(ptr noundef %7)
  ret ptr %8
}

; Function Attrs: nounwind uwtable
define internal ptr @core_bio_new_from_new_bio(ptr noundef %0) #0 {
  %2 = alloca ptr, align 8
  %3 = alloca ptr, align 8
  %4 = alloca ptr, align 8
  %5 = alloca i32, align 4
  store ptr %0, ptr %3, align 8, !tbaa !17
  call void @llvm.lifetime.start.p0(i64 8, ptr %4) #4
  store ptr null, ptr %4, align 8, !tbaa !3
  %6 = load ptr, ptr %3, align 8, !tbaa !17
  %7 = icmp eq ptr %6, null
  br i1 %7, label %8, label %9

8:                                                ; preds = %1
  store ptr null, ptr %2, align 8
  store i32 1, ptr %5, align 4
  br label %20

9:                                                ; preds = %1
  %10 = call ptr @core_bio_new()
  store ptr %10, ptr %4, align 8, !tbaa !3
  %11 = icmp eq ptr %10, null
  br i1 %11, label %12, label %15

12:                                               ; preds = %9
  %13 = load ptr, ptr %3, align 8, !tbaa !17
  %14 = call i32 @BIO_free(ptr noundef %13)
  store ptr null, ptr %2, align 8
  store i32 1, ptr %5, align 4
  br label %20

15:                                               ; preds = %9
  %16 = load ptr, ptr %3, align 8, !tbaa !17
  %17 = load ptr, ptr %4, align 8, !tbaa !3
  %18 = getelementptr inbounds nuw %struct.ossl_core_bio_st, ptr %17, i32 0, i32 1
  store ptr %16, ptr %18, align 8, !tbaa !13
  %19 = load ptr, ptr %4, align 8, !tbaa !3
  store ptr %19, ptr %2, align 8
  store i32 1, ptr %5, align 4
  br label %20

20:                                               ; preds = %15, %12, %8
  call void @llvm.lifetime.end.p0(i64 8, ptr %4) #4
  %21 = load ptr, ptr %2, align 8
  ret ptr %21
}

declare ptr @BIO_new_file(ptr noundef, ptr noundef) #3

; Function Attrs: nounwind uwtable
define ptr @ossl_core_bio_new_mem_buf(ptr noundef %0, i32 noundef %1) #0 {
  %3 = alloca ptr, align 8
  %4 = alloca i32, align 4
  store ptr %0, ptr %3, align 8, !tbaa !10
  store i32 %1, ptr %4, align 4, !tbaa !8
  %5 = load ptr, ptr %3, align 8, !tbaa !10
  %6 = load i32, ptr %4, align 4, !tbaa !8
  %7 = call ptr @BIO_new_mem_buf(ptr noundef %5, i32 noundef %6)
  %8 = call ptr @core_bio_new_from_new_bio(ptr noundef %7)
  ret ptr %8
}

declare ptr @BIO_new_mem_buf(ptr noundef, i32 noundef) #3

; Function Attrs: nounwind uwtable
define i32 @ossl_core_bio_read_ex(ptr noundef %0, ptr noundef %1, i64 noundef %2, ptr noundef %3) #0 {
  %5 = alloca ptr, align 8
  %6 = alloca ptr, align 8
  %7 = alloca i64, align 8
  %8 = alloca ptr, align 8
  store ptr %0, ptr %5, align 8, !tbaa !3
  store ptr %1, ptr %6, align 8, !tbaa !10
  store i64 %2, ptr %7, align 8, !tbaa !20
  store ptr %3, ptr %8, align 8, !tbaa !22
  %9 = load ptr, ptr %5, align 8, !tbaa !3
  %10 = getelementptr inbounds nuw %struct.ossl_core_bio_st, ptr %9, i32 0, i32 1
  %11 = load ptr, ptr %10, align 8, !tbaa !13
  %12 = load ptr, ptr %6, align 8, !tbaa !10
  %13 = load i64, ptr %7, align 8, !tbaa !20
  %14 = load ptr, ptr %8, align 8, !tbaa !22
  %15 = call i32 @BIO_read_ex(ptr noundef %11, ptr noundef %12, i64 noundef %13, ptr noundef %14)
  ret i32 %15
}

declare i32 @BIO_read_ex(ptr noundef, ptr noundef, i64 noundef, ptr noundef) #3

; Function Attrs: nounwind uwtable
define i32 @ossl_core_bio_write_ex(ptr noundef %0, ptr noundef %1, i64 noundef %2, ptr noundef %3) #0 {
  %5 = alloca ptr, align 8
  %6 = alloca ptr, align 8
  %7 = alloca i64, align 8
  %8 = alloca ptr, align 8
  store ptr %0, ptr %5, align 8, !tbaa !3
  store ptr %1, ptr %6, align 8, !tbaa !10
  store i64 %2, ptr %7, align 8, !tbaa !20
  store ptr %3, ptr %8, align 8, !tbaa !22
  %9 = load ptr, ptr %5, align 8, !tbaa !3
  %10 = getelementptr inbounds nuw %struct.ossl_core_bio_st, ptr %9, i32 0, i32 1
  %11 = load ptr, ptr %10, align 8, !tbaa !13
  %12 = load ptr, ptr %6, align 8, !tbaa !10
  %13 = load i64, ptr %7, align 8, !tbaa !20
  %14 = load ptr, ptr %8, align 8, !tbaa !22
  %15 = call i32 @BIO_write_ex(ptr noundef %11, ptr noundef %12, i64 noundef %13, ptr noundef %14)
  ret i32 %15
}

declare i32 @BIO_write_ex(ptr noundef, ptr noundef, i64 noundef, ptr noundef) #3

; Function Attrs: nounwind uwtable
define i32 @ossl_core_bio_gets(ptr noundef %0, ptr noundef %1, i32 noundef %2) #0 {
  %4 = alloca ptr, align 8
  %5 = alloca ptr, align 8
  %6 = alloca i32, align 4
  store ptr %0, ptr %4, align 8, !tbaa !3
  store ptr %1, ptr %5, align 8, !tbaa !18
  store i32 %2, ptr %6, align 4, !tbaa !8
  %7 = load ptr, ptr %4, align 8, !tbaa !3
  %8 = getelementptr inbounds nuw %struct.ossl_core_bio_st, ptr %7, i32 0, i32 1
  %9 = load ptr, ptr %8, align 8, !tbaa !13
  %10 = load ptr, ptr %5, align 8, !tbaa !18
  %11 = load i32, ptr %6, align 4, !tbaa !8
  %12 = call i32 @BIO_gets(ptr noundef %9, ptr noundef %10, i32 noundef %11)
  ret i32 %12
}

declare i32 @BIO_gets(ptr noundef, ptr noundef, i32 noundef) #3

; Function Attrs: nounwind uwtable
define i32 @ossl_core_bio_puts(ptr noundef %0, ptr noundef %1) #0 {
  %3 = alloca ptr, align 8
  %4 = alloca ptr, align 8
  store ptr %0, ptr %3, align 8, !tbaa !3
  store ptr %1, ptr %4, align 8, !tbaa !18
  %5 = load ptr, ptr %3, align 8, !tbaa !3
  %6 = getelementptr inbounds nuw %struct.ossl_core_bio_st, ptr %5, i32 0, i32 1
  %7 = load ptr, ptr %6, align 8, !tbaa !13
  %8 = load ptr, ptr %4, align 8, !tbaa !18
  %9 = call i32 @BIO_puts(ptr noundef %7, ptr noundef %8)
  ret i32 %9
}

declare i32 @BIO_puts(ptr noundef, ptr noundef) #3

; Function Attrs: nounwind uwtable
define i64 @ossl_core_bio_ctrl(ptr noundef %0, i32 noundef %1, i64 noundef %2, ptr noundef %3) #0 {
  %5 = alloca ptr, align 8
  %6 = alloca i32, align 4
  %7 = alloca i64, align 8
  %8 = alloca ptr, align 8
  store ptr %0, ptr %5, align 8, !tbaa !3
  store i32 %1, ptr %6, align 4, !tbaa !8
  store i64 %2, ptr %7, align 8, !tbaa !20
  store ptr %3, ptr %8, align 8, !tbaa !10
  %9 = load ptr, ptr %5, align 8, !tbaa !3
  %10 = getelementptr inbounds nuw %struct.ossl_core_bio_st, ptr %9, i32 0, i32 1
  %11 = load ptr, ptr %10, align 8, !tbaa !13
  %12 = load i32, ptr %6, align 4, !tbaa !8
  %13 = load i64, ptr %7, align 8, !tbaa !20
  %14 = load ptr, ptr %8, align 8, !tbaa !10
  %15 = call i64 @BIO_ctrl(ptr noundef %11, i32 noundef %12, i64 noundef %13, ptr noundef %14)
  ret i64 %15
}

declare i64 @BIO_ctrl(ptr noundef, i32 noundef, i64 noundef, ptr noundef) #3

; Function Attrs: nounwind uwtable
define i32 @ossl_core_bio_vprintf(ptr noundef %0, ptr noundef %1, ptr noundef %2) #0 {
  %4 = alloca ptr, align 8
  %5 = alloca ptr, align 8
  %6 = alloca ptr, align 8
  store ptr %0, ptr %4, align 8, !tbaa !3
  store ptr %1, ptr %5, align 8, !tbaa !18
  store ptr %2, ptr %6, align 8, !tbaa !24
  %7 = load ptr, ptr %4, align 8, !tbaa !3
  %8 = getelementptr inbounds nuw %struct.ossl_core_bio_st, ptr %7, i32 0, i32 1
  %9 = load ptr, ptr %8, align 8, !tbaa !13
  %10 = load ptr, ptr %5, align 8, !tbaa !18
  %11 = load ptr, ptr %6, align 8, !tbaa !24
  %12 = call i32 @BIO_vprintf(ptr noundef %9, ptr noundef %10, ptr noundef %11)
  ret i32 %12
}

declare i32 @BIO_vprintf(ptr noundef, ptr noundef, ptr noundef) #3

declare noalias ptr @CRYPTO_malloc(i64 noundef, ptr noundef, i32 noundef) #3

; Function Attrs: inlinehint nounwind uwtable
define internal i32 @CRYPTO_NEW_REF(ptr noundef %0, i32 noundef %1) #2 {
  %3 = alloca ptr, align 8
  %4 = alloca i32, align 4
  store ptr %0, ptr %3, align 8, !tbaa !10
  store i32 %1, ptr %4, align 4, !tbaa !8
  %5 = load i32, ptr %4, align 4, !tbaa !8
  %6 = load ptr, ptr %3, align 8, !tbaa !10
  %7 = getelementptr inbounds nuw %struct.CRYPTO_REF_COUNT, ptr %6, i32 0, i32 0
  store atomic i32 %5, ptr %7 seq_cst, align 4, !tbaa !26
  ret i32 1
}


!llvm.module.flags = !{!0, !1, !2}

!0 = !{i32 1, !"wchar_size", i32 4}
!1 = !{i32 8, !"PIC Level", i32 2}
!2 = !{i32 7, !"uwtable", i32 2}
!3 = !{!4, !4, i64 0}
!4 = !{!"p1 _ZTS16ossl_core_bio_st", !5, i64 0}
!5 = !{!"any pointer", !6, i64 0}
!6 = !{!"omnipotent char", !7, i64 0}
!7 = !{!"Simple C/C++ TBAA"}
!8 = !{!9, !9, i64 0}
!9 = !{!"int", !6, i64 0}
!10 = !{!5, !5, i64 0}
!11 = !{!12, !12, i64 0}
!12 = !{!"p1 int", !5, i64 0}
!13 = !{!14, !16, i64 8}
!14 = !{!"ossl_core_bio_st", !15, i64 0, !16, i64 8}
!15 = !{!"", !6, i64 0}
!16 = !{!"p1 _ZTS6bio_st", !5, i64 0}
!17 = !{!16, !16, i64 0}
!18 = !{!19, !19, i64 0}
!19 = !{!"p1 omnipotent char", !5, i64 0}
!20 = !{!21, !21, i64 0}
!21 = !{!"long", !6, i64 0}
!22 = !{!23, !23, i64 0}
!23 = !{!"p1 long", !5, i64 0}
!24 = !{!25, !25, i64 0}
!25 = !{!"p1 _ZTS13__va_list_tag", !5, i64 0}
!26 = !{!15, !6, i64 0}
